; Function Attrs: mustprogress uwtable
define hidden void @_ZNK19OpenColorIO_v2_4dev18NamedTransformImpl12getTransformENS_18TransformDirectionE(ptr noalias nocapture writeonly sret(%"class.std::shared_ptr.3") align 8 %agg.result, ptr nocapture noundef nonnull readonly align 8 dereferenceable(224) %this, i32 noundef %dir) unnamed_addr #0 align 2 personality ptr @__gxx_personality_v0 {
entry:
  switch i32 %dir, label %if.end4 [
    i32 0, label %if.then
    i32 1, label %if.then3
  ]

if.then:                                          ; preds = %entry
  %m_forwardTransform = getelementptr inbounds i8, ptr %this, i64 64
  %0 = load ptr, ptr %m_forwardTransform, align 8
  store ptr %0, ptr %agg.result, align 8
  %_M_refcount.i.i = getelementptr inbounds i8, ptr %agg.result, i64 8
  %_M_refcount3.i.i = getelementptr inbounds i8, ptr %this, i64 72
  %1 = load ptr, ptr %_M_refcount3.i.i, align 8
  store ptr %1, ptr %_M_refcount.i.i, align 8
  %cmp.not.i.i.i = icmp eq ptr %1, null
  br i1 %cmp.not.i.i.i, label %return, label %if.then.i.i.i

if.then.i.i.i:                                    ; preds = %if.then
  %_M_use_count.i.i.i.i = getelementptr inbounds i8, ptr %1, i64 8
  %2 = load i8, ptr @__libc_single_threaded, align 1
  %tobool.i.i.not.i.i.i.i = icmp eq i8 %2, 0
  br i1 %tobool.i.i.not.i.i.i.i, label %if.else.i.i.i.i.i, label %if.then.i.i.i.i.i

if.then.i.i.i.i.i:                                ; preds = %if.then.i.i.i
  %3 = load i32, ptr %_M_use_count.i.i.i.i, align 4
  %add.i.i.i.i.i = add nsw i32 %3, 1
  store i32 %add.i.i.i.i.i, ptr %_M_use_count.i.i.i.i, align 4
  br label %return

if.else.i.i.i.i.i:                                ; preds = %if.then.i.i.i
  %4 = atomicrmw volatile add ptr %_M_use_count.i.i.i.i, i32 1 acq_rel, align 4
  br label %return

if.then3:                                         ; preds = %entry
  %m_inverseTransform = getelementptr inbounds i8, ptr %this, i64 80
  %5 = load ptr, ptr %m_inverseTransform, align 8
  store ptr %5, ptr %agg.result, align 8
  %_M_refcount.i.i2 = getelementptr inbounds i8, ptr %agg.result, i64 8
  %_M_refcount3.i.i3 = getelementptr inbounds i8, ptr %this, i64 88
  %6 = load ptr, ptr %_M_refcount3.i.i3, align 8
  store ptr %6, ptr %_M_refcount.i.i2, align 8
  %cmp.not.i.i.i4 = icmp eq ptr %6, null
  br i1 %cmp.not.i.i.i4, label %return, label %if.then.i.i.i5

if.then.i.i.i5:                                   ; preds = %if.then3
  %_M_use_count.i.i.i.i6 = getelementptr inbounds i8, ptr %6, i64 8
  %7 = load i8, ptr @__libc_single_threaded, align 1
  %tobool.i.i.not.i.i.i.i7 = icmp eq i8 %7, 0
  br i1 %tobool.i.i.not.i.i.i.i7, label %if.else.i.i.i.i.i10, label %if.then.i.i.i.i.i8

if.then.i.i.i.i.i8:                               ; preds = %if.then.i.i.i5
  %8 = load i32, ptr %_M_use_count.i.i.i.i6, align 4
  %add.i.i.i.i.i9 = add nsw i32 %8, 1
  store i32 %add.i.i.i.i.i9, ptr %_M_use_count.i.i.i.i6, align 4
  br label %return

if.else.i.i.i.i.i10:                              ; preds = %if.then.i.i.i5
  %9 = atomicrmw volatile add ptr %_M_use_count.i.i.i.i6, i32 1 acq_rel, align 4
  br label %return

if.end4:                                          ; preds = %entry
  %exception = tail call ptr @__cxa_allocate_exception(i64 16) #17
  invoke void @_ZN19OpenColorIO_v2_4dev9ExceptionC1EPKc(ptr noundef nonnull align 8 dereferenceable(16) %exception, ptr noundef nonnull @.str.1)
          to label %invoke.cont unwind label %lpad

invoke.cont:                                      ; preds = %if.end4
  tail call void @__cxa_throw(ptr nonnull %exception, ptr nonnull @_ZTIN19OpenColorIO_v2_4dev9ExceptionE, ptr nonnull @_ZN19OpenColorIO_v2_4dev9ExceptionD1Ev) #18
  unreachable

lpad:                                             ; preds = %if.end4
  %10 = landingpad { ptr, i32 }
          cleanup
  tail call void @__cxa_free_exception(ptr %exception) #17
  resume { ptr, i32 } %10

return:                                           ; preds = %if.else.i.i.i.i.i10, %if.then.i.i.i.i.i8, %if.then3, %if.else.i.i.i.i.i, %if.then.i.i.i.i.i, %if.then
  ret void
}